; Function Attrs: nounwind uwtable
define internal void @fileio_dealloc(ptr noundef initializes((21, 22)) %0) #1 {
  %2 = getelementptr inbounds nuw i8, ptr %0, i64 21
  store i8 1, ptr %2, align 1, !tbaa !14
  %3 = tail call i32 @_PyIOBase_finalize(ptr noundef %0) #10
  %4 = icmp slt i32 %3, 0
  br i1 %4, label %Py_DECREF.exit, label %5

5:                                                ; preds = %1
  %6 = getelementptr i8, ptr %0, i64 -16
  %7 = getelementptr i8, ptr %0, i64 -8
  %.val.i = load i64, ptr %7, align 8, !tbaa !15
  %8 = and i64 %.val.i, -4
  %9 = inttoptr i64 %8 to ptr
  %.val9.i = load i64, ptr %6, align 8, !tbaa !18
  %10 = and i64 %.val9.i, -4
  %11 = inttoptr i64 %10 to ptr
  %12 = load i64, ptr %9, align 8, !tbaa !18
  %13 = and i64 %12, 3
  %14 = or disjoint i64 %13, %10
  store i64 %14, ptr %9, align 8, !tbaa !18
  %15 = getelementptr inbounds nuw i8, ptr %11, i64 8
  %16 = load i64, ptr %15, align 8, !tbaa !15
  %17 = and i64 %16, 3
  %18 = or disjoint i64 %17, %8
  store i64 %18, ptr %15, align 8, !tbaa !15
  store i64 0, ptr %6, align 8, !tbaa !18
  %19 = load i64, ptr %7, align 8, !tbaa !15
  %20 = and i64 %19, 1
  store i64 %20, ptr %7, align 8, !tbaa !15
  %21 = getelementptr inbounds nuw i8, ptr %0, i64 24
  %22 = load ptr, ptr %21, align 8, !tbaa !19
  %.not = icmp eq ptr %22, null
  br i1 %.not, label %24, label %23

23:                                               ; preds = %5
  tail call void @PyMem_Free(ptr noundef nonnull %22) #10
  store ptr null, ptr %21, align 8, !tbaa !19
  br label %24

24:                                               ; preds = %23, %5
  %25 = getelementptr inbounds nuw i8, ptr %0, i64 32
  %26 = load ptr, ptr %25, align 8, !tbaa !20
  %.not14 = icmp eq ptr %26, null
  br i1 %.not14, label %28, label %27

27:                                               ; preds = %24
  tail call void @PyObject_ClearWeakRefs(ptr noundef nonnull %0) #10
  br label %28

28:                                               ; preds = %27, %24
  %29 = getelementptr inbounds nuw i8, ptr %0, i64 40
  %30 = load ptr, ptr %29, align 8, !tbaa !21
  %.not.i15 = icmp eq ptr %30, null
  br i1 %.not.i15, label %fileio_clear.exit, label %31

31:                                               ; preds = %28
  store ptr null, ptr %29, align 8, !tbaa !21
  %32 = load i32, ptr %30, align 8, !tbaa !22
  %.not.i.i = icmp sgt i32 %32, -1
  br i1 %.not.i.i, label %33, label %fileio_clear.exit

33:                                               ; preds = %31
  %34 = add nsw i32 %32, -1
  store i32 %34, ptr %30, align 8, !tbaa !22
  %35 = icmp eq i32 %34, 0
  br i1 %35, label %36, label %fileio_clear.exit

36:                                               ; preds = %33
  tail call void @_Py_Dealloc(ptr noundef nonnull %30) #10
  br label %fileio_clear.exit

fileio_clear.exit:                                ; preds = %28, %31, %33, %36
  %37 = getelementptr i8, ptr %0, i64 8
  %.val = load ptr, ptr %37, align 8, !tbaa !23
  %38 = getelementptr inbounds nuw i8, ptr %.val, i64 320
  %39 = load ptr, ptr %38, align 8, !tbaa !24
  tail call void %39(ptr noundef nonnull %0) #10
  %40 = load i32, ptr %.val, align 8, !tbaa !22
  %.not.i = icmp sgt i32 %40, -1
  br i1 %.not.i, label %41, label %Py_DECREF.exit

41:                                               ; preds = %fileio_clear.exit
  %42 = add nsw i32 %40, -1
  store i32 %42, ptr %.val, align 8, !tbaa !22
  %43 = icmp eq i32 %42, 0
  br i1 %43, label %44, label %Py_DECREF.exit

44:                                               ; preds = %41
  tail call void @_Py_Dealloc(ptr noundef nonnull %.val) #10
  br label %Py_DECREF.exit

Py_DECREF.exit:                                   ; preds = %44, %41, %fileio_clear.exit, %1
  ret void
}